target datalayout = "e-m:e-p270:32:32-p271:32:32-p272:64:64-i64:64-i128:128-f80:128-n8:16:32:64-S128"
target triple = "x86_64-pc-linux-gnu"

%struct.slurm_topo_ops = type { ptr, ptr, ptr, ptr, ptr, ptr, ptr, ptr, ptr, ptr, ptr, ptr, ptr, ptr }
%struct.timeval = type { i64, i64 }

@ops = internal global %struct.slurm_topo_ops zeroinitializer, align 8
@__func__.topology_g_build_config = private unnamed_addr constant [24 x i8] c"topology_g_build_config\00", align 1

; Function Attrs: nounwind uwtable
define dso_local i32 @topology_g_build_config() #0 {
  %1 = alloca i32, align 4
  %2 = alloca %struct.timeval, align 8
  %3 = alloca %struct.timeval, align 8
  %4 = alloca [20 x i8], align 16
  %5 = alloca i64, align 8
  call void @llvm.lifetime.start.p0(i64 4, ptr %1) #7
  call void @llvm.lifetime.start.p0(i64 16, ptr %2) #7
  call void @llvm.lifetime.start.p0(i64 16, ptr %3) #7
  call void @llvm.lifetime.start.p0(i64 20, ptr %4) #7
  call void @llvm.memset.p0.i64(ptr align 16 %4, i8 0, i64 20, i1 false)
  call void @llvm.lifetime.start.p0(i64 8, ptr %5) #7
  %6 = call i32 @gettimeofday(ptr noundef %2, ptr noundef null) #7
  %7 = load ptr, ptr getelementptr inbounds nuw (%struct.slurm_topo_ops, ptr @ops, i32 0, i32 1), align 8
  %8 = call i32 %7()
  store i32 %8, ptr %1, align 4
  br label %9

9:                                                ; preds = %0
  %10 = call i32 @gettimeofday(ptr noundef %3, ptr noundef null) #7
  %11 = getelementptr inbounds [20 x i8], ptr %4, i64 0, i64 0
  call void @slurm_diff_tv_str(ptr noundef %2, ptr noundef %3, ptr noundef %11, i32 noundef 20, ptr noundef @__func__.topology_g_build_config, i64 noundef 20000, ptr noundef %5)
  br label %12

12:                                               ; preds = %9
  br label %13

13:                                               ; preds = %12
  %14 = load i32, ptr %1, align 4
  call void @llvm.lifetime.end.p0(i64 8, ptr %5) #7
  call void @llvm.lifetime.end.p0(i64 20, ptr %4) #7
  call void @llvm.lifetime.end.p0(i64 16, ptr %3) #7
  call void @llvm.lifetime.end.p0(i64 16, ptr %2) #7
  call void @llvm.lifetime.end.p0(i64 4, ptr %1) #7
  ret i32 %14
}