; Function Attrs: nounwind uwtable
define dso_local i32 @topology_g_build_config() #0 {
  %1 = alloca %struct.timeval, align 8
  %2 = alloca %struct.timeval, align 8
  %3 = alloca [20 x i8], align 16
  %4 = alloca i64, align 8
  call void @llvm.lifetime.start.p0(i64 16, ptr nonnull %1) #9
  call void @llvm.lifetime.start.p0(i64 16, ptr nonnull %2) #9
  call void @llvm.lifetime.start.p0(i64 20, ptr nonnull %3) #9
  call void @llvm.memset.p0.i64(ptr noundef nonnull align 16 dereferenceable(20) %3, i8 0, i64 20, i1 false)
  call void @llvm.lifetime.start.p0(i64 8, ptr nonnull %4) #9
  %5 = call i32 @gettimeofday(ptr noundef nonnull %1, ptr noundef null) #9
  %6 = load ptr, ptr getelementptr inbounds nuw (i8, ptr @ops, i64 8), align 8
  %7 = tail call i32 %6() #9
  %8 = call i32 @gettimeofday(ptr noundef nonnull %2, ptr noundef null) #9
  call void @slurm_diff_tv_str(ptr noundef nonnull %1, ptr noundef nonnull %2, ptr noundef nonnull %3, i32 noundef 20, ptr noundef nonnull @__func__.topology_g_build_config, i64 noundef 20000, ptr noundef nonnull %4) #9
  call void @llvm.lifetime.end.p0(i64 8, ptr nonnull %4) #9
  call void @llvm.lifetime.end.p0(i64 20, ptr nonnull %3) #9
  call void @llvm.lifetime.end.p0(i64 16, ptr nonnull %2) #9
  call void @llvm.lifetime.end.p0(i64 16, ptr nonnull %1) #9
  ret i32 %7
}